target datalayout = "e-m:e-p270:32:32-p271:32:32-p272:64:64-i64:64-i128:128-f80:128-n8:16:32:64-S128"
target triple = "x86_64-pc-linux-gnu"

%struct.png_info_def = type { i32, i32, i32, i64, ptr, i16, i16, i8, i8, i8, i8, i8, i8, i8, i8, [8 x i8], %struct.png_colorspace, ptr, ptr, i32, i32, i32, ptr, %struct.png_time_struct, %struct.png_color_8_struct, ptr, %struct.png_color_16_struct, %struct.png_color_16_struct, i32, i32, i8, i32, i32, i8, i32, ptr, ptr, ptr, ptr, i32, i32, ptr, ptr, i8, i8, i32, ptr, i32, ptr, i32, i8, ptr, ptr, ptr }
%struct.png_colorspace = type { i32, %struct.png_xy, %struct.png_XYZ, i16, i16 }
%struct.png_xy = type { i32, i32, i32, i32, i32, i32, i32, i32 }
%struct.png_XYZ = type { i32, i32, i32, i32, i32, i32, i32, i32, i32 }
%struct.png_time_struct = type { i16, i8, i8, i8, i8, i8 }
%struct.png_color_8_struct = type { i8, i8, i8, i8, i8 }
%struct.png_color_16_struct = type { i8, i16, i16, i16, i16 }
%struct.png_struct_def = type { [1 x %struct.__jmp_buf_tag], ptr, ptr, i64, ptr, ptr, ptr, ptr, ptr, ptr, ptr, ptr, ptr, i8, i8, i32, i32, i32, i32, %struct.z_stream_s, ptr, i32, i32, i32, i32, i32, i32, i32, i32, i32, i32, i32, i32, i32, i32, i32, i32, i32, i32, i32, i32, i64, i32, i32, i32, ptr, ptr, ptr, ptr, i64, i32, i32, ptr, i16, i32, i16, i8, i8, i8, i8, i8, i8, i8, i8, i8, i8, i8, i8, i8, i8, i8, i16, i8, i32, %struct.png_color_16_struct, %struct.png_color_16_struct, ptr, i32, i32, i32, i32, ptr, ptr, ptr, ptr, ptr, ptr, %struct.png_color_8_struct, %struct.png_color_8_struct, ptr, %struct.png_color_16_struct, ptr, ptr, ptr, ptr, ptr, ptr, ptr, ptr, ptr, i32, i32, i64, i64, i64, i64, i32, i32, ptr, ptr, i32, [29 x i8], i32, ptr, ptr, i32, i32, ptr, i8, i8, i16, i16, ptr, i32, i8, ptr, ptr, ptr, ptr, ptr, ptr, ptr, i8, i32, i32, i32, i64, %struct.png_unknown_chunk_t, i64, ptr, i64, i32, i32, ptr, [4 x ptr], %struct.png_colorspace }
%struct.__jmp_buf_tag = type { [8 x i64], i32, %struct.__sigset_t }
%struct.__sigset_t = type { [16 x i64] }
%struct.z_stream_s = type { ptr, i32, i64, ptr, i32, i64, ptr, ptr, ptr, ptr, ptr, i32, i64, i64 }
%struct.png_unknown_chunk_t = type { [5 x i8], ptr, i64, i8 }

@.str.12 = private unnamed_addr constant [40 x i8] c"Insufficient memory for eXIf chunk data\00", align 1

; Function Attrs: nounwind uwtable
define void @png_set_eXIf_1(ptr noalias noundef %0, ptr noalias noundef %1, i32 noundef %2, ptr noundef %3) #0 {
  %5 = alloca ptr, align 8
  %6 = alloca ptr, align 8
  %7 = alloca i32, align 4
  %8 = alloca ptr, align 8
  %9 = alloca ptr, align 8
  store ptr %0, ptr %5, align 8
  store ptr %1, ptr %6, align 8
  store i32 %2, ptr %7, align 4
  store ptr %3, ptr %8, align 8
  %10 = load ptr, ptr %5, align 8
  %11 = icmp eq ptr %10, null
  br i1 %11, label %21, label %12

12:                                               ; preds = %4
  %13 = load ptr, ptr %6, align 8
  %14 = icmp eq ptr %13, null
  br i1 %14, label %21, label %15

15:                                               ; preds = %12
  %16 = load ptr, ptr %5, align 8
  %17 = getelementptr inbounds %struct.png_struct_def, ptr %16, i32 0, i32 15
  %18 = load i32, ptr %17, align 4
  %19 = and i32 %18, 16384
  %20 = icmp ne i32 %19, 0
  br i1 %20, label %21, label %22

21:                                               ; preds = %15, %12, %4
  br label %52

22:                                               ; preds = %15
  %23 = load ptr, ptr %5, align 8
  %24 = load i32, ptr %7, align 4
  %25 = zext i32 %24 to i64
  %26 = call noalias ptr @png_malloc_warn(ptr noundef %23, i64 noundef %25)
  store ptr %26, ptr %9, align 8
  %27 = load ptr, ptr %9, align 8
  %28 = icmp eq ptr %27, null
  br i1 %28, label %29, label %31

29:                                               ; preds = %22
  %30 = load ptr, ptr %5, align 8
  call void @png_warning(ptr noundef %30, ptr noundef @.str.12)
  br label %52

31:                                               ; preds = %22
  %32 = load ptr, ptr %9, align 8
  %33 = load ptr, ptr %8, align 8
  %34 = load i32, ptr %7, align 4
  %35 = zext i32 %34 to i64
  call void @llvm.memcpy.p0.p0.i64(ptr align 1 %32, ptr align 1 %33, i64 %35, i1 false)
  %36 = load ptr, ptr %5, align 8
  %37 = load ptr, ptr %6, align 8
  call void @png_free_data(ptr noundef %36, ptr noundef %37, i32 noundef 32768, i32 noundef 0)
  %38 = load i32, ptr %7, align 4
  %39 = load ptr, ptr %6, align 8
  %40 = getelementptr inbounds %struct.png_info_def, ptr %39, i32 0, i32 34
  store i32 %38, ptr %40, align 4
  %41 = load ptr, ptr %9, align 8
  %42 = load ptr, ptr %6, align 8
  %43 = getelementptr inbounds %struct.png_info_def, ptr %42, i32 0, i32 35
  store ptr %41, ptr %43, align 8
  %44 = load ptr, ptr %6, align 8
  %45 = getelementptr inbounds %struct.png_info_def, ptr %44, i32 0, i32 45
  %46 = load i32, ptr %45, align 4
  %47 = or i32 %46, 32768
  store i32 %47, ptr %45, align 4
  %48 = load ptr, ptr %6, align 8
  %49 = getelementptr inbounds %struct.png_info_def, ptr %48, i32 0, i32 2
  %50 = load i32, ptr %49, align 8
  %51 = or i32 %50, 65536
  store i32 %51, ptr %49, align 8
  br label %52

52:                                               ; preds = %31, %29, %21
  ret void
}