; Function Attrs: nounwind uwtable
define void @png_set_eXIf_1(ptr noalias noundef %0, ptr noalias noundef %1, i32 noundef %2, ptr nocapture noundef readonly %3) local_unnamed_addr #2 {
  %5 = icmp eq ptr %0, null
  %6 = icmp eq ptr %1, null
  %or.cond = or i1 %5, %6
  br i1 %or.cond, label %25, label %7

7:                                                ; preds = %4
  %8 = getelementptr inbounds i8, ptr %0, i64 300
  %9 = load i32, ptr %8, align 4
  %10 = and i32 %9, 16384
  %.not = icmp eq i32 %10, 0
  br i1 %.not, label %11, label %25

11:                                               ; preds = %7
  %12 = zext i32 %2 to i64
  %13 = tail call noalias ptr @png_malloc_warn(ptr noundef nonnull %0, i64 noundef %12) #12
  %14 = icmp eq ptr %13, null
  br i1 %14, label %15, label %16

15:                                               ; preds = %11
  tail call void @png_warning(ptr noundef nonnull %0, ptr noundef nonnull @.str.12) #12
  br label %25

16:                                               ; preds = %11
  tail call void @llvm.memcpy.p0.p0.i64(ptr nonnull align 1 %13, ptr align 1 %3, i64 %12, i1 false)
  tail call void @png_free_data(ptr noundef nonnull %0, ptr noundef nonnull %1, i32 noundef 32768, i32 noundef 0) #12
  %17 = getelementptr inbounds i8, ptr %1, i64 236
  store i32 %2, ptr %17, align 4
  %18 = getelementptr inbounds i8, ptr %1, i64 240
  store ptr %13, ptr %18, align 8
  %19 = getelementptr inbounds i8, ptr %1, i64 300
  %20 = load i32, ptr %19, align 4
  %21 = or i32 %20, 32768
  store i32 %21, ptr %19, align 4
  %22 = getelementptr inbounds i8, ptr %1, i64 8
  %23 = load i32, ptr %22, align 8
  %24 = or i32 %23, 65536
  store i32 %24, ptr %22, align 8
  br label %25

25:                                               ; preds = %4, %7, %16, %15
  ret void
}